; Function Attrs: nounwind uwtable
define dso_local void @destroy_search_info(ptr noundef %0) local_unnamed_addr #2 {
  %2 = alloca ptr, align 8
  call void @llvm.lifetime.start.p0(i64 8, ptr nonnull %2) #16
  store ptr %0, ptr %2, align 8
  %.not = icmp eq ptr %0, null
  br i1 %.not, label %10, label %3

3:                                                ; preds = %1
  %4 = getelementptr inbounds nuw i8, ptr %0, i64 8
  %5 = load ptr, ptr %4, align 8
  tail call void @g_free(ptr noundef %5) #16
  %6 = getelementptr inbounds nuw i8, ptr %0, i64 16
  %7 = load ptr, ptr %6, align 8
  %.not2 = icmp eq ptr %7, null
  br i1 %.not2, label %9, label %8

8:                                                ; preds = %3
  tail call void @g_free(ptr noundef nonnull %7) #16
  br label %9

9:                                                ; preds = %8, %3
  store ptr null, ptr %6, align 8
  call void @slurm_xfree(ptr noundef nonnull %2) #16
  br label %10

10:                                               ; preds = %9, %1
  call void @llvm.lifetime.end.p0(i64 8, ptr nonnull %2) #16
  ret void
}